target datalayout = "e-m:e-p270:32:32-p271:32:32-p272:64:64-i64:64-i128:128-f80:128-n8:16:32:64-S128"
target triple = "x86_64-pc-linux-gnu"

%struct.t_rgb = type { double, double, double }

@.str.247 = private unnamed_addr constant [39 x i8] c"\22%c%c c #%02X%02X%02X \22 /* \22%.3g\22 */,\0A\00", align 1
@_ZL6mapper = internal constant [89 x i8] c"ABCDEFGHIJKLMNOPQRSTUVWXYZabcdefghijklmnopqrstuvwxyz0123456789!@#$%^&*()-_=+{}|;:',<.>/?\00", align 16

; Function Attrs: mustprogress nounwind uwtable
define linkonce_odr noundef float @_ZSt5roundf(float noundef %0) #2 comdat {
  %2 = alloca float, align 4
  store float %0, ptr %2, align 4
  %3 = load float, ptr %2, align 4
  %4 = call float @llvm.round.f32(float %3)
  ret float %4
}

; Function Attrs: mustprogress uwtable
define internal void @_ZL14pr_simple_cmapP8_IO_FILEffi5t_rgbS1_i(ptr noundef %0, float noundef %1, float noundef %2, i32 noundef %3, ptr noundef byval(%struct.t_rgb) align 8 %4, ptr noundef byval(%struct.t_rgb) align 8 %5, i32 noundef %6) #0 {
  %8 = alloca ptr, align 8
  %9 = alloca float, align 4
  %10 = alloca float, align 4
  %11 = alloca i32, align 4
  %12 = alloca i32, align 4
  %13 = alloca i32, align 4
  %14 = alloca float, align 4
  %15 = alloca float, align 4
  %16 = alloca float, align 4
  %17 = alloca float, align 4
  store ptr %0, ptr %8, align 8
  store float %1, ptr %9, align 4
  store float %2, ptr %10, align 4
  store i32 %3, ptr %11, align 4
  store i32 %6, ptr %12, align 4
  store i32 0, ptr %13, align 4
  br label %18

18:                                               ; preds = %107, %7
  %19 = load i32, ptr %13, align 4
  %20 = load i32, ptr %11, align 4
  %21 = icmp slt i32 %19, %20
  br i1 %21, label %22, label %110

22:                                               ; preds = %18
  %23 = load i32, ptr %13, align 4
  %24 = sitofp i32 %23 to double
  %25 = fadd double %24, 1.000000e+00
  %26 = load i32, ptr %11, align 4
  %27 = sitofp i32 %26 to double
  %28 = fdiv double %25, %27
  %29 = fptrunc double %28 to float
  store float %29, ptr %17, align 4
  %30 = getelementptr inbounds %struct.t_rgb, ptr %4, i32 0, i32 0
  %31 = load double, ptr %30, align 8
  %32 = load float, ptr %17, align 4
  %33 = fpext float %32 to double
  %34 = getelementptr inbounds %struct.t_rgb, ptr %5, i32 0, i32 0
  %35 = load double, ptr %34, align 8
  %36 = getelementptr inbounds %struct.t_rgb, ptr %4, i32 0, i32 0
  %37 = load double, ptr %36, align 8
  %38 = fsub double %35, %37
  %39 = call double @llvm.fmuladd.f64(double %33, double %38, double %31)
  %40 = fptrunc double %39 to float
  store float %40, ptr %14, align 4
  %41 = getelementptr inbounds %struct.t_rgb, ptr %4, i32 0, i32 1
  %42 = load double, ptr %41, align 8
  %43 = load float, ptr %17, align 4
  %44 = fpext float %43 to double
  %45 = getelementptr inbounds %struct.t_rgb, ptr %5, i32 0, i32 1
  %46 = load double, ptr %45, align 8
  %47 = getelementptr inbounds %struct.t_rgb, ptr %4, i32 0, i32 1
  %48 = load double, ptr %47, align 8
  %49 = fsub double %46, %48
  %50 = call double @llvm.fmuladd.f64(double %44, double %49, double %42)
  %51 = fptrunc double %50 to float
  store float %51, ptr %15, align 4
  %52 = getelementptr inbounds %struct.t_rgb, ptr %4, i32 0, i32 2
  %53 = load double, ptr %52, align 8
  %54 = load float, ptr %17, align 4
  %55 = fpext float %54 to double
  %56 = getelementptr inbounds %struct.t_rgb, ptr %5, i32 0, i32 2
  %57 = load double, ptr %56, align 8
  %58 = getelementptr inbounds %struct.t_rgb, ptr %4, i32 0, i32 2
  %59 = load double, ptr %58, align 8
  %60 = fsub double %57, %59
  %61 = call double @llvm.fmuladd.f64(double %55, double %60, double %53)
  %62 = fptrunc double %61 to float
  store float %62, ptr %16, align 4
  %63 = load ptr, ptr %8, align 8
  %64 = load i32, ptr %13, align 4
  %65 = load i32, ptr %12, align 4
  %66 = add nsw i32 %64, %65
  %67 = sext i32 %66 to i64
  %68 = srem i64 %67, 89
  %69 = getelementptr inbounds [89 x i8], ptr @_ZL6mapper, i64 0, i64 %68
  %70 = load i8, ptr %69, align 1
  %71 = sext i8 %70 to i32
  %72 = load i32, ptr %11, align 4
  %73 = sext i32 %72 to i64
  %74 = icmp sle i64 %73, 89
  br i1 %74, label %75, label %76

75:                                               ; preds = %22
  br label %84

76:                                               ; preds = %22
  %77 = load i32, ptr %13, align 4
  %78 = load i32, ptr %12, align 4
  %79 = add nsw i32 %77, %78
  %80 = sext i32 %79 to i64
  %81 = sdiv i64 %80, 89
  %82 = getelementptr inbounds [89 x i8], ptr @_ZL6mapper, i64 0, i64 %81
  %83 = load i8, ptr %82, align 1
  br label %84

84:                                               ; preds = %76, %75
  %85 = phi i8 [ 32, %75 ], [ %83, %76 ]
  %86 = sext i8 %85 to i32
  %87 = load float, ptr %14, align 4
  %88 = fmul float 2.550000e+02, %87
  %89 = call noundef float @_ZSt5roundf(float noundef %88)
  %90 = fptoui float %89 to i32
  %91 = load float, ptr %15, align 4
  %92 = fmul float 2.550000e+02, %91
  %93 = call noundef float @_ZSt5roundf(float noundef %92)
  %94 = fptoui float %93 to i32
  %95 = load float, ptr %16, align 4
  %96 = fmul float 2.550000e+02, %95
  %97 = call noundef float @_ZSt5roundf(float noundef %96)
  %98 = fptoui float %97 to i32
  %99 = load float, ptr %9, align 4
  %100 = load float, ptr %17, align 4
  %101 = load float, ptr %10, align 4
  %102 = load float, ptr %9, align 4
  %103 = fsub float %101, %102
  %104 = call float @llvm.fmuladd.f32(float %100, float %103, float %99)
  %105 = fpext float %104 to double
  %106 = call i32 (ptr, ptr, ...) @fprintf(ptr noundef %63, ptr noundef @.str.247, i32 noundef %71, i32 noundef %86, i32 noundef %90, i32 noundef %94, i32 noundef %98, double noundef %105) #14
  br label %107

107:                                              ; preds = %84
  %108 = load i32, ptr %13, align 4
  %109 = add nsw i32 %108, 1
  store i32 %109, ptr %13, align 4
  br label %18, !llvm.loop !134

110:                                              ; preds = %18
  ret void
}