; Function Attrs: mustprogress nofree nounwind uwtable
define internal fastcc void @_ZL14pr_simple_cmapP8_IO_FILEffi5t_rgbS1_i(ptr nocapture noundef %0, float noundef %1, float noundef %2, i32 noundef %3, ptr nocapture noundef readonly byval(%struct.t_rgb) align 8 %4, ptr nocapture noundef readonly byval(%struct.t_rgb) align 8 %5, i32 noundef %6) unnamed_addr #18 {
  %8 = icmp sgt i32 %3, 0
  br i1 %8, label %.lr.ph, label %._crit_edge

.lr.ph:                                           ; preds = %7
  %9 = sitofp i32 %3 to double
  %10 = load double, ptr %4, align 8
  %11 = load double, ptr %5, align 8
  %12 = fsub double %11, %10
  %13 = getelementptr inbounds i8, ptr %4, i64 8
  %14 = load double, ptr %13, align 8
  %15 = getelementptr inbounds i8, ptr %5, i64 8
  %16 = load double, ptr %15, align 8
  %17 = fsub double %16, %14
  %18 = getelementptr inbounds i8, ptr %4, i64 16
  %19 = load double, ptr %18, align 8
  %20 = getelementptr inbounds i8, ptr %5, i64 16
  %21 = load double, ptr %20, align 8
  %22 = fsub double %21, %19
  %23 = icmp ult i32 %3, 90
  %24 = fsub float %2, %1
  br i1 %23, label %.lr.ph.split.us, label %.lr.ph.split

.lr.ph.split.us:                                  ; preds = %.lr.ph, %.lr.ph.split.us
  %.023.us = phi i32 [ %25, %.lr.ph.split.us ], [ 0, %.lr.ph ]
  %25 = add nuw nsw i32 %.023.us, 1
  %26 = uitofp nneg i32 %25 to double
  %27 = fdiv double %26, %9
  %28 = fptrunc double %27 to float
  %29 = fpext float %28 to double
  %30 = tail call double @llvm.fmuladd.f64(double %29, double %12, double %10)
  %31 = fptrunc double %30 to float
  %32 = tail call double @llvm.fmuladd.f64(double %29, double %17, double %14)
  %33 = fptrunc double %32 to float
  %34 = tail call double @llvm.fmuladd.f64(double %29, double %22, double %19)
  %35 = fptrunc double %34 to float
  %36 = add nsw i32 %.023.us, %6
  %37 = srem i32 %36, 89
  %.sext.us = sext i32 %37 to i64
  %38 = getelementptr inbounds [89 x i8], ptr @_ZL6mapper, i64 0, i64 %.sext.us
  %39 = load i8, ptr %38, align 1
  %40 = sext i8 %39 to i32
  %41 = fmul float %31, 2.550000e+02
  %42 = tail call noundef float @llvm.round.f32(float %41)
  %43 = fptoui float %42 to i32
  %44 = fmul float %33, 2.550000e+02
  %45 = tail call noundef float @llvm.round.f32(float %44)
  %46 = fptoui float %45 to i32
  %47 = fmul float %35, 2.550000e+02
  %48 = tail call noundef float @llvm.round.f32(float %47)
  %49 = fptoui float %48 to i32
  %50 = tail call float @llvm.fmuladd.f32(float %28, float %24, float %1)
  %51 = fpext float %50 to double
  %52 = tail call i32 (ptr, ptr, ...) @fprintf(ptr noundef %0, ptr noundef nonnull @.str.247, i32 noundef %40, i32 noundef 32, i32 noundef %43, i32 noundef %46, i32 noundef %49, double noundef %51) #24
  %exitcond25.not = icmp eq i32 %25, %3
  br i1 %exitcond25.not, label %._crit_edge, label %.lr.ph.split.us, !llvm.loop !292

.lr.ph.split:                                     ; preds = %.lr.ph, %.lr.ph.split
  %.023 = phi i32 [ %53, %.lr.ph.split ], [ 0, %.lr.ph ]
  %53 = add nuw nsw i32 %.023, 1
  %54 = uitofp nneg i32 %53 to double
  %55 = fdiv double %54, %9
  %56 = fptrunc double %55 to float
  %57 = fpext float %56 to double
  %58 = tail call double @llvm.fmuladd.f64(double %57, double %12, double %10)
  %59 = fptrunc double %58 to float
  %60 = tail call double @llvm.fmuladd.f64(double %57, double %17, double %14)
  %61 = fptrunc double %60 to float
  %62 = tail call double @llvm.fmuladd.f64(double %57, double %22, double %19)
  %63 = fptrunc double %62 to float
  %64 = add nsw i32 %.023, %6
  %65 = srem i32 %64, 89
  %.sext = sext i32 %65 to i64
  %66 = getelementptr inbounds [89 x i8], ptr @_ZL6mapper, i64 0, i64 %.sext
  %67 = load i8, ptr %66, align 1
  %68 = sext i8 %67 to i32
  %69 = sdiv i32 %64, 89
  %.sext22 = sext i32 %69 to i64
  %70 = getelementptr inbounds [89 x i8], ptr @_ZL6mapper, i64 0, i64 %.sext22
  %71 = load i8, ptr %70, align 1
  %72 = sext i8 %71 to i32
  %73 = fmul float %59, 2.550000e+02
  %74 = tail call noundef float @llvm.round.f32(float %73)
  %75 = fptoui float %74 to i32
  %76 = fmul float %61, 2.550000e+02
  %77 = tail call noundef float @llvm.round.f32(float %76)
  %78 = fptoui float %77 to i32
  %79 = fmul float %63, 2.550000e+02
  %80 = tail call noundef float @llvm.round.f32(float %79)
  %81 = fptoui float %80 to i32
  %82 = tail call float @llvm.fmuladd.f32(float %56, float %24, float %1)
  %83 = fpext float %82 to double
  %84 = tail call i32 (ptr, ptr, ...) @fprintf(ptr noundef %0, ptr noundef nonnull @.str.247, i32 noundef %68, i32 noundef %72, i32 noundef %75, i32 noundef %78, i32 noundef %81, double noundef %83) #24
  %exitcond.not = icmp eq i32 %53, %3
  br i1 %exitcond.not, label %._crit_edge, label %.lr.ph.split, !llvm.loop !292

._crit_edge:                                      ; preds = %.lr.ph.split, %.lr.ph.split.us, %7
  ret void
}